(dp0
Vengine
p1
S'pdflatex'
p2
sVpackages
p3
c__builtin__
set
p4
((lp5
Vgeometry
p6
aVhyperref
p7
aVparskip
p8
atp9
Rp10
sVfiles_with_guttermarks
p11
g4
((lp12
V/Users/carter/Documents/VizUM/./idea_checkpoint.tex
p13
aS'idea_checkpoint.tex'
p14
atp15
Rp16
sVsynctex
p17
I01
s.